target datalayout = "e-m:e-p270:32:32-p271:32:32-p272:64:64-i64:64-i128:128-f80:128-n8:16:32:64-S128"
target triple = "x86_64-pc-linux-gnu"

%"struct.cv::utils::trace::details::Region::LocationStaticStorage" = type { ptr, ptr, ptr, i32, i32 }
%"class.cv::utils::trace::details::Region" = type <{ ptr, i32, [4 x i8] }>

$_ZN2cv5utils5trace7details6RegionD2Ev = comdat any

$__clang_call_terminate = comdat any

@_ZN2cv3hal13popCountTableE = external constant [256 x i8], align 16
@_ZZN2cv3hal11normHammingEPKhiE30__cv_trace_location_extra_fn14 = internal global ptr null, align 8
@_ZZN2cv3hal11normHammingEPKhiE24__cv_trace_location_fn14 = internal constant %"struct.cv::utils::trace::details::Region::LocationStaticStorage" { ptr @_ZZN2cv3hal11normHammingEPKhiE30__cv_trace_location_extra_fn14, ptr @.str, ptr @.str.1, i32 14, i32 1 }, align 8
@.str = private unnamed_addr constant [45 x i8] c"int cv::hal::normHamming(const uchar *, int)\00", align 1
@.str.1 = private unnamed_addr constant [126 x i8] c"generated/home/dtcxzyw/WorkSpace/Projects/compilers/llvm-opt-benchmark/bench/opencv/opencv/modules/core/src/stat.dispatch.cpp\00", align 1
@_ZZN2cv3hal11normHammingEPKhS2_iE30__cv_trace_location_extra_fn22 = internal global ptr null, align 8
@_ZZN2cv3hal11normHammingEPKhS2_iE24__cv_trace_location_fn22 = internal constant %"struct.cv::utils::trace::details::Region::LocationStaticStorage" { ptr @_ZZN2cv3hal11normHammingEPKhS2_iE30__cv_trace_location_extra_fn22, ptr @.str.2, ptr @.str.1, i32 22, i32 1 }, align 8
@.str.2 = private unnamed_addr constant [60 x i8] c"int cv::hal::normHamming(const uchar *, const uchar *, int)\00", align 1

; Function Attrs: mustprogress nounwind uwtable
define hidden noundef i32 @_ZN2cv3hal12cpu_baseline11normHammingEPKhi(ptr noundef %0, i32 noundef %1) #0 {
  %3 = alloca ptr, align 8
  %4 = alloca i32, align 4
  %5 = alloca i32, align 4
  %6 = alloca i32, align 4
  store ptr %0, ptr %3, align 8, !tbaa !3
  store i32 %1, ptr %4, align 4, !tbaa !8
  call void @llvm.lifetime.start.p0(i64 4, ptr %5) #6
  store i32 0, ptr %5, align 4, !tbaa !8
  call void @llvm.lifetime.start.p0(i64 4, ptr %6) #6
  store i32 0, ptr %6, align 4, !tbaa !8
  br label %7

7:                                                ; preds = %23, %2
  %8 = load i32, ptr %5, align 4, !tbaa !8
  %9 = load i32, ptr %4, align 4, !tbaa !8
  %10 = icmp slt i32 %8, %9
  br i1 %10, label %11, label %26

11:                                               ; preds = %7
  %12 = load ptr, ptr %3, align 8, !tbaa !3
  %13 = load i32, ptr %5, align 4, !tbaa !8
  %14 = sext i32 %13 to i64
  %15 = getelementptr inbounds i8, ptr %12, i64 %14
  %16 = load i8, ptr %15, align 1, !tbaa !10
  %17 = zext i8 %16 to i64
  %18 = getelementptr inbounds nuw [256 x i8], ptr @_ZN2cv3hal13popCountTableE, i64 0, i64 %17
  %19 = load i8, ptr %18, align 1, !tbaa !10
  %20 = zext i8 %19 to i32
  %21 = load i32, ptr %6, align 4, !tbaa !8
  %22 = add nsw i32 %21, %20
  store i32 %22, ptr %6, align 4, !tbaa !8
  br label %23

23:                                               ; preds = %11
  %24 = load i32, ptr %5, align 4, !tbaa !8
  %25 = add nsw i32 %24, 1
  store i32 %25, ptr %5, align 4, !tbaa !8
  br label %7, !llvm.loop !11

26:                                               ; preds = %7
  %27 = load i32, ptr %6, align 4, !tbaa !8
  call void @llvm.lifetime.end.p0(i64 4, ptr %6) #6
  call void @llvm.lifetime.end.p0(i64 4, ptr %5) #6
  ret i32 %27
}

; Function Attrs: nocallback nofree nosync nounwind willreturn memory(argmem: readwrite)
declare void @llvm.lifetime.start.p0(i64 immarg, ptr captures(none)) #1

; Function Attrs: nocallback nofree nosync nounwind willreturn memory(argmem: readwrite)
declare void @llvm.lifetime.end.p0(i64 immarg, ptr captures(none)) #1

; Function Attrs: mustprogress nounwind uwtable
define hidden noundef i32 @_ZN2cv3hal12cpu_baseline11normHammingEPKhS3_i(ptr noundef %0, ptr noundef %1, i32 noundef %2) #0 {
  %4 = alloca ptr, align 8
  %5 = alloca ptr, align 8
  %6 = alloca i32, align 4
  %7 = alloca i32, align 4
  %8 = alloca i32, align 4
  store ptr %0, ptr %4, align 8, !tbaa !3
  store ptr %1, ptr %5, align 8, !tbaa !3
  store i32 %2, ptr %6, align 4, !tbaa !8
  call void @llvm.lifetime.start.p0(i64 4, ptr %7) #6
  store i32 0, ptr %7, align 4, !tbaa !8
  call void @llvm.lifetime.start.p0(i64 4, ptr %8) #6
  store i32 0, ptr %8, align 4, !tbaa !8
  br label %9

9:                                                ; preds = %33, %3
  %10 = load i32, ptr %7, align 4, !tbaa !8
  %11 = load i32, ptr %6, align 4, !tbaa !8
  %12 = icmp slt i32 %10, %11
  br i1 %12, label %13, label %36

13:                                               ; preds = %9
  %14 = load ptr, ptr %4, align 8, !tbaa !3
  %15 = load i32, ptr %7, align 4, !tbaa !8
  %16 = sext i32 %15 to i64
  %17 = getelementptr inbounds i8, ptr %14, i64 %16
  %18 = load i8, ptr %17, align 1, !tbaa !10
  %19 = zext i8 %18 to i32
  %20 = load ptr, ptr %5, align 8, !tbaa !3
  %21 = load i32, ptr %7, align 4, !tbaa !8
  %22 = sext i32 %21 to i64
  %23 = getelementptr inbounds i8, ptr %20, i64 %22
  %24 = load i8, ptr %23, align 1, !tbaa !10
  %25 = zext i8 %24 to i32
  %26 = xor i32 %19, %25
  %27 = sext i32 %26 to i64
  %28 = getelementptr inbounds [256 x i8], ptr @_ZN2cv3hal13popCountTableE, i64 0, i64 %27
  %29 = load i8, ptr %28, align 1, !tbaa !10
  %30 = zext i8 %29 to i32
  %31 = load i32, ptr %8, align 4, !tbaa !8
  %32 = add nsw i32 %31, %30
  store i32 %32, ptr %8, align 4, !tbaa !8
  br label %33

33:                                               ; preds = %13
  %34 = load i32, ptr %7, align 4, !tbaa !8
  %35 = add nsw i32 %34, 1
  store i32 %35, ptr %7, align 4, !tbaa !8
  br label %9, !llvm.loop !13

36:                                               ; preds = %9
  %37 = load i32, ptr %8, align 4, !tbaa !8
  call void @llvm.lifetime.end.p0(i64 4, ptr %8) #6
  call void @llvm.lifetime.end.p0(i64 4, ptr %7) #6
  ret i32 %37
}

; Function Attrs: mustprogress uwtable
define noundef i32 @_ZN2cv3hal11normHammingEPKhi(ptr noundef %0, i32 noundef %1) #2 {
  %3 = alloca ptr, align 8
  %4 = alloca i32, align 4
  %5 = alloca %"class.cv::utils::trace::details::Region", align 8
  store ptr %0, ptr %3, align 8, !tbaa !3
  store i32 %1, ptr %4, align 4, !tbaa !8
  call void @llvm.lifetime.start.p0(i64 16, ptr %5) #6
  call void @_ZN2cv5utils5trace7details6RegionC1ERKNS3_21LocationStaticStorageE(ptr noundef nonnull align 8 dereferenceable(12) %5, ptr noundef nonnull align 8 dereferenceable(32) @_ZZN2cv3hal11normHammingEPKhiE24__cv_trace_location_fn14)
  %6 = load ptr, ptr %3, align 8, !tbaa !3
  %7 = load i32, ptr %4, align 4, !tbaa !8
  %8 = call noundef i32 @_ZN2cv3hal12cpu_baseline11normHammingEPKhi(ptr noundef %6, i32 noundef %7)
  call void @_ZN2cv5utils5trace7details6RegionD2Ev(ptr noundef nonnull align 8 dereferenceable(12) %5) #6
  call void @llvm.lifetime.end.p0(i64 16, ptr %5) #6
  ret i32 %8
}

declare void @_ZN2cv5utils5trace7details6RegionC1ERKNS3_21LocationStaticStorageE(ptr noundef nonnull align 8 dereferenceable(12), ptr noundef nonnull align 8 dereferenceable(32)) unnamed_addr #3

; Function Attrs: inlinehint mustprogress nounwind uwtable
define linkonce_odr hidden void @_ZN2cv5utils5trace7details6RegionD2Ev(ptr noundef nonnull align 8 dereferenceable(12) %0) unnamed_addr #4 comdat align 2 personality ptr @__gxx_personality_v0 {
  %2 = alloca ptr, align 8
  store ptr %0, ptr %2, align 8, !tbaa !14
  %3 = load ptr, ptr %2, align 8
  %4 = getelementptr inbounds nuw %"class.cv::utils::trace::details::Region", ptr %3, i32 0, i32 1
  %5 = load i32, ptr %4, align 8, !tbaa !16
  %6 = icmp ne i32 %5, 0
  br i1 %6, label %7, label %9

7:                                                ; preds = %1
  invoke void @_ZN2cv5utils5trace7details6Region7destroyEv(ptr noundef nonnull align 8 dereferenceable(12) %3)
          to label %8 unwind label %10

8:                                                ; preds = %7
  br label %9

9:                                                ; preds = %8, %1
  ret void

10:                                               ; preds = %7
  %11 = landingpad { ptr, i32 }
          catch ptr null
  %12 = extractvalue { ptr, i32 } %11, 0
  call void @__clang_call_terminate(ptr %12) #7
  unreachable
}

; Function Attrs: mustprogress uwtable
define noundef i32 @_ZN2cv3hal11normHammingEPKhS2_i(ptr noundef %0, ptr noundef %1, i32 noundef %2) #2 {
  %4 = alloca ptr, align 8
  %5 = alloca ptr, align 8
  %6 = alloca i32, align 4
  %7 = alloca %"class.cv::utils::trace::details::Region", align 8
  store ptr %0, ptr %4, align 8, !tbaa !3
  store ptr %1, ptr %5, align 8, !tbaa !3
  store i32 %2, ptr %6, align 4, !tbaa !8
  call void @llvm.lifetime.start.p0(i64 16, ptr %7) #6
  call void @_ZN2cv5utils5trace7details6RegionC1ERKNS3_21LocationStaticStorageE(ptr noundef nonnull align 8 dereferenceable(12) %7, ptr noundef nonnull align 8 dereferenceable(32) @_ZZN2cv3hal11normHammingEPKhS2_iE24__cv_trace_location_fn22)
  %8 = load ptr, ptr %4, align 8, !tbaa !3
  %9 = load ptr, ptr %5, align 8, !tbaa !3
  %10 = load i32, ptr %6, align 4, !tbaa !8
  %11 = call noundef i32 @_ZN2cv3hal12cpu_baseline11normHammingEPKhS3_i(ptr noundef %8, ptr noundef %9, i32 noundef %10)
  call void @_ZN2cv5utils5trace7details6RegionD2Ev(ptr noundef nonnull align 8 dereferenceable(12) %7) #6
  call void @llvm.lifetime.end.p0(i64 16, ptr %7) #6
  ret i32 %11
}

declare void @_ZN2cv5utils5trace7details6Region7destroyEv(ptr noundef nonnull align 8 dereferenceable(12)) #3

declare i32 @__gxx_personality_v0(...)

; Function Attrs: noinline noreturn nounwind uwtable
define linkonce_odr hidden void @__clang_call_terminate(ptr noundef %0) #5 comdat {
  %2 = call ptr @__cxa_begin_catch(ptr %0) #6
  call void @_ZSt9terminatev() #7
  unreachable
}

declare ptr @__cxa_begin_catch(ptr)

declare void @_ZSt9terminatev()


!llvm.module.flags = !{!0, !1, !2}

!0 = !{i32 1, !"wchar_size", i32 4}
!1 = !{i32 8, !"PIC Level", i32 2}
!2 = !{i32 7, !"uwtable", i32 2}
!3 = !{!4, !4, i64 0}
!4 = !{!"p1 omnipotent char", !5, i64 0}
!5 = !{!"any pointer", !6, i64 0}
!6 = !{!"omnipotent char", !7, i64 0}
!7 = !{!"Simple C++ TBAA"}
!8 = !{!9, !9, i64 0}
!9 = !{!"int", !6, i64 0}
!10 = !{!6, !6, i64 0}
!11 = distinct !{!11, !12}
!12 = !{!"llvm.loop.mustprogress"}
!13 = distinct !{!13, !12}
!14 = !{!15, !15, i64 0}
!15 = !{!"p1 _ZTSN2cv5utils5trace7details6RegionE", !5, i64 0}
!16 = !{!17, !9, i64 8}
!17 = !{!"_ZTSN2cv5utils5trace7details6RegionE", !18, i64 0, !9, i64 8}
!18 = !{!"p1 _ZTSN2cv5utils5trace7details6Region4ImplE", !5, i64 0}
